Certificate Request:
    Data:
        Version: 0 (0x0)
        Subject: C=BR, ST=Rio de Janeiro, L=Mage, O=Qzumba - security chat relay, OU=Security, CN=zumbi.loc/emailAddress=admin@zumbi.loc
        Subject Public Key Info:
            Public Key Algorithm: rsaEncryption
                Public-Key: (2048 bit)
                Modulus:
                    00:dd:bb:30:6e:82:66:4f:17:34:d8:8b:c7:e8:8a:
                    50:5e:d3:5d:48:ef:26:c7:6e:85:12:a0:bc:43:b5:
                    af:98:d6:ec:bb:7f:7f:ef:b6:fa:49:3f:42:6e:b4:
                    da:51:3b:33:51:cb:fb:a6:d2:d6:08:ab:eb:f4:33:
                    79:b6:96:1b:70:7a:c2:9d:2e:9b:1d:6d:a5:85:4c:
                    11:f3:ad:e3:38:69:c9:03:8a:1b:82:69:72:7f:0f:
                    c8:94:dd:2d:07:00:2d:54:47:22:a7:b3:1e:46:2f:
                    7c:f6:c6:02:f8:8e:ec:06:89:8b:0d:a8:98:7f:8e:
                    da:21:77:83:f3:b7:bc:7a:4f:c1:54:95:c1:46:52:
                    a9:d8:91:1f:ca:9c:d8:57:eb:ca:e1:ba:90:0b:d5:
                    64:b4:7c:53:83:bc:3b:dc:ad:9d:1a:bf:a8:17:9c:
                    ff:ea:22:f0:c5:19:7c:dd:8a:52:c1:8c:7e:6e:b7:
                    a7:be:1c:d0:34:a8:5a:be:c6:05:6d:1c:c1:db:cb:
                    82:c2:82:d8:e2:a2:bd:d0:84:85:30:92:13:82:df:
                    94:35:50:81:33:85:2d:88:ba:2d:98:1d:db:71:b1:
                    4c:c9:23:7b:c7:c1:d8:13:26:f2:5e:38:e4:57:c0:
                    a3:f2:06:6a:dc:b5:f0:d5:f4:5a:74:94:20:78:66:
                    ce:d5
                Exponent: 65537 (0x10001)
        Attributes:
            a0:00
    Signature Algorithm: sha512WithRSAEncryption
         1e:da:37:fc:d8:94:a6:eb:38:3f:90:cd:ca:2d:6b:5d:dd:8c:
         53:44:d9:e7:07:3c:00:30:b2:2f:fd:c8:14:38:20:ca:af:63:
         a9:9f:23:e9:2e:ec:79:bc:0b:88:be:d2:bc:18:f7:9c:92:f3:
         e8:22:e6:44:e1:7e:4c:96:ff:45:8f:16:f6:9d:4a:94:9b:e5:
         b2:b6:5c:b2:b1:f3:2a:4b:e9:09:1a:f2:56:e4:81:01:a0:e3:
         b9:4c:2a:af:4d:26:3c:99:12:5a:9c:c1:36:e0:45:c0:5b:55:
         9e:45:36:71:5e:2a:de:6c:72:8c:ff:e1:6b:26:b2:40:dd:ef:
         ae:cd:da:62:30:78:e0:04:7e:59:7b:a0:08:c8:c2:d6:95:ce:
         99:cd:32:31:b5:96:ef:55:66:a3:7c:16:07:15:35:7d:a1:be:
         7f:1b:81:d1:5e:85:df:c2:ff:fe:d5:bf:0b:8b:a8:25:5e:ac:
         71:e4:8b:f1:1f:f8:ef:07:2b:c3:eb:e1:90:69:3b:eb:32:8a:
         64:51:a4:09:7c:72:c3:bb:4d:99:4c:e0:22:05:62:b4:e5:9a:
         27:03:ef:fc:93:ba:f8:15:f5:f9:5f:dc:98:28:8a:01:49:ec:
         ab:9b:a8:8d:06:90:37:0c:e0:b7:5a:43:78:25:fa:e6:6d:c7:
         b5:f9:a4:89
-----BEGIN CERTIFICATE REQUEST-----
MIIC6TCCAdECAQAwgaMxCzAJBgNVBAYTAkJSMRcwFQYDVQQIDA5SaW8gZGUgSmFu
ZWlybzENMAsGA1UEBwwETWFnZTElMCMGA1UECgwcUXp1bWJhIC0gc2VjdXJpdHkg
Y2hhdCByZWxheTERMA8GA1UECwwIU2VjdXJpdHkxEjAQBgNVBAMMCXp1bWJpLmxv
YzEeMBwGCSqGSIb3DQEJARYPYWRtaW5AenVtYmkubG9jMIIBIjANBgkqhkiG9w0B
AQEFAAOCAQ8AMIIBCgKCAQEA3bswboJmTxc02IvH6IpQXtNdSO8mx26FEqC8Q7Wv
mNbsu39/77b6ST9CbrTaUTszUcv7ptLWCKvr9DN5tpYbcHrCnS6bHW2lhUwR863j
OGnJA4obgmlyfw/IlN0tBwAtVEcip7MeRi989sYC+I7sBomLDaiYf47aIXeD87e8
ek/BVJXBRlKp2JEfypzYV+vK4bqQC9VktHxTg7w73K2dGr+oF5z/6iLwxRl83YpS
wYx+brenvhzQNKhavsYFbRzB28uCwoLY4qK90ISFMJITgt+UNVCBM4UtiLotmB3b
cbFMySN7x8HYEybyXjjkV8Cj8gZq3LXw1fRadJQgeGbO1QIDAQABoAAwDQYJKoZI
hvcNAQENBQADggEBAB7aN/zYlKbrOD+Qzcota13djFNE2ecHPAAwsi/9yBQ4IMqv
Y6mfI+ku7Hm8C4i+0rwY95yS8+gi5kThfkyW/0WPFvadSpSb5bK2XLKx8ypL6Qka
8lbkgQGg47lMKq9NJjyZElqcwTbgRcBbVZ5FNnFeKt5scoz/4WsmskDd767N2mIw
eOAEfll7oAjIwtaVzpnNMjG1lu9VZqN8FgcVNX2hvn8bgdFehd/C//7VvwuLqCVe
rHHki/Ef+O8HK8Pr4ZBpO+syimRRpAl8csO7TZlM4CIFYrTlmicD7/yTuvgV9flf
3JgoigFJ7KubqI0GkDcM4LdaQ3gl+uZtx7X5pIk=
-----END CERTIFICATE REQUEST-----
